target datalayout = "e-m:e-p270:32:32-p271:32:32-p272:64:64-i64:64-i128:128-f80:128-n8:16:32:64-S128"
target triple = "x86_64-pc-linux-gnu"

%struct.sct_st = type { i32, ptr, i64, ptr, i64, i64, ptr, i64, i8, i8, ptr, i64, i32, i32, i32 }

@.str = private unnamed_addr constant [30 x i8] c"../openssl/crypto/ct/ct_oct.c\00", align 1
@__func__.i2o_SCT = private unnamed_addr constant [8 x i8] c"i2o_SCT\00", align 1

; Function Attrs: nounwind uwtable
define i32 @i2o_SCT(ptr noundef %0, ptr noundef %1) #0 {
  %3 = alloca i32, align 4
  %4 = alloca ptr, align 8
  %5 = alloca ptr, align 8
  %6 = alloca i64, align 8
  %7 = alloca ptr, align 8
  %8 = alloca ptr, align 8
  %9 = alloca i32, align 4
  store ptr %0, ptr %4, align 8, !tbaa !3
  store ptr %1, ptr %5, align 8, !tbaa !8
  call void @llvm.lifetime.start.p0(i64 8, ptr %6) #5
  call void @llvm.lifetime.start.p0(i64 8, ptr %7) #5
  store ptr null, ptr %7, align 8, !tbaa !16
  call void @llvm.lifetime.start.p0(i64 8, ptr %8) #5
  store ptr null, ptr %8, align 8, !tbaa !16
  %10 = load ptr, ptr %4, align 8, !tbaa !3
  %11 = call i32 @SCT_is_complete(ptr noundef %10)
  %12 = icmp ne i32 %11, 0
  br i1 %12, label %14, label %13

13:                                               ; preds = %2
  call void @ERR_new()
  call void @ERR_set_debug(ptr noundef @.str, i32 noundef 204, ptr noundef @__func__.i2o_SCT)
  call void (i32, i32, ptr, ...) @ERR_set_error(i32 noundef 50, i32 noundef 106, ptr noundef null)
  br label %189

14:                                               ; preds = %2
  %15 = load ptr, ptr %4, align 8, !tbaa !3
  %16 = getelementptr inbounds nuw %struct.sct_st, ptr %15, i32 0, i32 0
  %17 = load i32, ptr %16, align 8, !tbaa !12
  %18 = icmp eq i32 %17, 0
  br i1 %18, label %19, label %29

19:                                               ; preds = %14
  %20 = load ptr, ptr %4, align 8, !tbaa !3
  %21 = getelementptr inbounds nuw %struct.sct_st, ptr %20, i32 0, i32 7
  %22 = load i64, ptr %21, align 8, !tbaa !26
  %23 = add i64 43, %22
  %24 = add i64 %23, 4
  %25 = load ptr, ptr %4, align 8, !tbaa !3
  %26 = getelementptr inbounds nuw %struct.sct_st, ptr %25, i32 0, i32 11
  %27 = load i64, ptr %26, align 8, !tbaa !30
  %28 = add i64 %24, %27
  store i64 %28, ptr %6, align 8, !tbaa !10
  br label %33

29:                                               ; preds = %14
  %30 = load ptr, ptr %4, align 8, !tbaa !3
  %31 = getelementptr inbounds nuw %struct.sct_st, ptr %30, i32 0, i32 2
  %32 = load i64, ptr %31, align 8, !tbaa !29
  store i64 %32, ptr %6, align 8, !tbaa !10
  br label %33

33:                                               ; preds = %29, %19
  %34 = load ptr, ptr %5, align 8, !tbaa !8
  %35 = icmp eq ptr %34, null
  br i1 %35, label %36, label %39

36:                                               ; preds = %33
  %37 = load i64, ptr %6, align 8, !tbaa !10
  %38 = trunc i64 %37 to i32
  store i32 %38, ptr %3, align 4
  store i32 1, ptr %9, align 4
  br label %191

39:                                               ; preds = %33
  %40 = load ptr, ptr %5, align 8, !tbaa !8
  %41 = load ptr, ptr %40, align 8, !tbaa !16
  %42 = icmp ne ptr %41, null
  br i1 %42, label %43, label %50

43:                                               ; preds = %39
  %44 = load ptr, ptr %5, align 8, !tbaa !8
  %45 = load ptr, ptr %44, align 8, !tbaa !16
  store ptr %45, ptr %7, align 8, !tbaa !16
  %46 = load i64, ptr %6, align 8, !tbaa !10
  %47 = load ptr, ptr %5, align 8, !tbaa !8
  %48 = load ptr, ptr %47, align 8, !tbaa !16
  %49 = getelementptr inbounds nuw i8, ptr %48, i64 %46
  store ptr %49, ptr %47, align 8, !tbaa !16
  br label %59

50:                                               ; preds = %39
  %51 = load i64, ptr %6, align 8, !tbaa !10
  %52 = call noalias ptr @CRYPTO_malloc(i64 noundef %51, ptr noundef @.str, i32 noundef 225)
  store ptr %52, ptr %7, align 8, !tbaa !16
  store ptr %52, ptr %8, align 8, !tbaa !16
  %53 = load ptr, ptr %7, align 8, !tbaa !16
  %54 = icmp eq ptr %53, null
  br i1 %54, label %55, label %56

55:                                               ; preds = %50
  br label %189

56:                                               ; preds = %50
  %57 = load ptr, ptr %7, align 8, !tbaa !16
  %58 = load ptr, ptr %5, align 8, !tbaa !8
  store ptr %57, ptr %58, align 8, !tbaa !16
  br label %59

59:                                               ; preds = %56, %43
  %60 = load ptr, ptr %4, align 8, !tbaa !3
  %61 = getelementptr inbounds nuw %struct.sct_st, ptr %60, i32 0, i32 0
  %62 = load i32, ptr %61, align 8, !tbaa !12
  %63 = icmp eq i32 %62, 0
  br i1 %63, label %64, label %180

64:                                               ; preds = %59
  %65 = load ptr, ptr %4, align 8, !tbaa !3
  %66 = getelementptr inbounds nuw %struct.sct_st, ptr %65, i32 0, i32 0
  %67 = load i32, ptr %66, align 8, !tbaa !12
  %68 = trunc i32 %67 to i8
  %69 = load ptr, ptr %7, align 8, !tbaa !16
  %70 = getelementptr inbounds nuw i8, ptr %69, i32 1
  store ptr %70, ptr %7, align 8, !tbaa !16
  store i8 %68, ptr %69, align 1, !tbaa !17
  %71 = load ptr, ptr %7, align 8, !tbaa !16
  %72 = load ptr, ptr %4, align 8, !tbaa !3
  %73 = getelementptr inbounds nuw %struct.sct_st, ptr %72, i32 0, i32 3
  %74 = load ptr, ptr %73, align 8, !tbaa !22
  call void @llvm.memcpy.p0.p0.i64(ptr align 1 %71, ptr align 1 %74, i64 32, i1 false)
  %75 = load ptr, ptr %7, align 8, !tbaa !16
  %76 = getelementptr inbounds i8, ptr %75, i64 32
  store ptr %76, ptr %7, align 8, !tbaa !16
  %77 = load ptr, ptr %4, align 8, !tbaa !3
  %78 = getelementptr inbounds nuw %struct.sct_st, ptr %77, i32 0, i32 5
  %79 = load i64, ptr %78, align 8, !tbaa !24
  %80 = lshr i64 %79, 56
  %81 = and i64 %80, 255
  %82 = trunc i64 %81 to i8
  %83 = load ptr, ptr %7, align 8, !tbaa !16
  %84 = getelementptr inbounds nuw i8, ptr %83, i32 1
  store ptr %84, ptr %7, align 8, !tbaa !16
  store i8 %82, ptr %83, align 1, !tbaa !17
  %85 = load ptr, ptr %4, align 8, !tbaa !3
  %86 = getelementptr inbounds nuw %struct.sct_st, ptr %85, i32 0, i32 5
  %87 = load i64, ptr %86, align 8, !tbaa !24
  %88 = lshr i64 %87, 48
  %89 = and i64 %88, 255
  %90 = trunc i64 %89 to i8
  %91 = load ptr, ptr %7, align 8, !tbaa !16
  %92 = getelementptr inbounds nuw i8, ptr %91, i32 1
  store ptr %92, ptr %7, align 8, !tbaa !16
  store i8 %90, ptr %91, align 1, !tbaa !17
  %93 = load ptr, ptr %4, align 8, !tbaa !3
  %94 = getelementptr inbounds nuw %struct.sct_st, ptr %93, i32 0, i32 5
  %95 = load i64, ptr %94, align 8, !tbaa !24
  %96 = lshr i64 %95, 40
  %97 = and i64 %96, 255
  %98 = trunc i64 %97 to i8
  %99 = load ptr, ptr %7, align 8, !tbaa !16
  %100 = getelementptr inbounds nuw i8, ptr %99, i32 1
  store ptr %100, ptr %7, align 8, !tbaa !16
  store i8 %98, ptr %99, align 1, !tbaa !17
  %101 = load ptr, ptr %4, align 8, !tbaa !3
  %102 = getelementptr inbounds nuw %struct.sct_st, ptr %101, i32 0, i32 5
  %103 = load i64, ptr %102, align 8, !tbaa !24
  %104 = lshr i64 %103, 32
  %105 = and i64 %104, 255
  %106 = trunc i64 %105 to i8
  %107 = load ptr, ptr %7, align 8, !tbaa !16
  %108 = getelementptr inbounds nuw i8, ptr %107, i32 1
  store ptr %108, ptr %7, align 8, !tbaa !16
  store i8 %106, ptr %107, align 1, !tbaa !17
  %109 = load ptr, ptr %4, align 8, !tbaa !3
  %110 = getelementptr inbounds nuw %struct.sct_st, ptr %109, i32 0, i32 5
  %111 = load i64, ptr %110, align 8, !tbaa !24
  %112 = lshr i64 %111, 24
  %113 = and i64 %112, 255
  %114 = trunc i64 %113 to i8
  %115 = load ptr, ptr %7, align 8, !tbaa !16
  %116 = getelementptr inbounds nuw i8, ptr %115, i32 1
  store ptr %116, ptr %7, align 8, !tbaa !16
  store i8 %114, ptr %115, align 1, !tbaa !17
  %117 = load ptr, ptr %4, align 8, !tbaa !3
  %118 = getelementptr inbounds nuw %struct.sct_st, ptr %117, i32 0, i32 5
  %119 = load i64, ptr %118, align 8, !tbaa !24
  %120 = lshr i64 %119, 16
  %121 = and i64 %120, 255
  %122 = trunc i64 %121 to i8
  %123 = load ptr, ptr %7, align 8, !tbaa !16
  %124 = getelementptr inbounds nuw i8, ptr %123, i32 1
  store ptr %124, ptr %7, align 8, !tbaa !16
  store i8 %122, ptr %123, align 1, !tbaa !17
  %125 = load ptr, ptr %4, align 8, !tbaa !3
  %126 = getelementptr inbounds nuw %struct.sct_st, ptr %125, i32 0, i32 5
  %127 = load i64, ptr %126, align 8, !tbaa !24
  %128 = lshr i64 %127, 8
  %129 = and i64 %128, 255
  %130 = trunc i64 %129 to i8
  %131 = load ptr, ptr %7, align 8, !tbaa !16
  %132 = getelementptr inbounds nuw i8, ptr %131, i32 1
  store ptr %132, ptr %7, align 8, !tbaa !16
  store i8 %130, ptr %131, align 1, !tbaa !17
  %133 = load ptr, ptr %4, align 8, !tbaa !3
  %134 = getelementptr inbounds nuw %struct.sct_st, ptr %133, i32 0, i32 5
  %135 = load i64, ptr %134, align 8, !tbaa !24
  %136 = and i64 %135, 255
  %137 = trunc i64 %136 to i8
  %138 = load ptr, ptr %7, align 8, !tbaa !16
  %139 = getelementptr inbounds nuw i8, ptr %138, i32 1
  store ptr %139, ptr %7, align 8, !tbaa !16
  store i8 %137, ptr %138, align 1, !tbaa !17
  %140 = load ptr, ptr %4, align 8, !tbaa !3
  %141 = getelementptr inbounds nuw %struct.sct_st, ptr %140, i32 0, i32 7
  %142 = load i64, ptr %141, align 8, !tbaa !26
  %143 = lshr i64 %142, 8
  %144 = and i64 %143, 255
  %145 = trunc i64 %144 to i8
  %146 = load ptr, ptr %7, align 8, !tbaa !16
  %147 = getelementptr inbounds i8, ptr %146, i64 0
  store i8 %145, ptr %147, align 1, !tbaa !17
  %148 = load ptr, ptr %4, align 8, !tbaa !3
  %149 = getelementptr inbounds nuw %struct.sct_st, ptr %148, i32 0, i32 7
  %150 = load i64, ptr %149, align 8, !tbaa !26
  %151 = and i64 %150, 255
  %152 = trunc i64 %151 to i8
  %153 = load ptr, ptr %7, align 8, !tbaa !16
  %154 = getelementptr inbounds i8, ptr %153, i64 1
  store i8 %152, ptr %154, align 1, !tbaa !17
  %155 = load ptr, ptr %7, align 8, !tbaa !16
  %156 = getelementptr inbounds i8, ptr %155, i64 2
  store ptr %156, ptr %7, align 8, !tbaa !16
  %157 = load ptr, ptr %4, align 8, !tbaa !3
  %158 = getelementptr inbounds nuw %struct.sct_st, ptr %157, i32 0, i32 7
  %159 = load i64, ptr %158, align 8, !tbaa !26
  %160 = icmp ugt i64 %159, 0
  br i1 %160, label %161, label %174

161:                                              ; preds = %64
  %162 = load ptr, ptr %7, align 8, !tbaa !16
  %163 = load ptr, ptr %4, align 8, !tbaa !3
  %164 = getelementptr inbounds nuw %struct.sct_st, ptr %163, i32 0, i32 6
  %165 = load ptr, ptr %164, align 8, !tbaa !25
  %166 = load ptr, ptr %4, align 8, !tbaa !3
  %167 = getelementptr inbounds nuw %struct.sct_st, ptr %166, i32 0, i32 7
  %168 = load i64, ptr %167, align 8, !tbaa !26
  call void @llvm.memcpy.p0.p0.i64(ptr align 1 %162, ptr align 1 %165, i64 %168, i1 false)
  %169 = load ptr, ptr %4, align 8, !tbaa !3
  %170 = getelementptr inbounds nuw %struct.sct_st, ptr %169, i32 0, i32 7
  %171 = load i64, ptr %170, align 8, !tbaa !26
  %172 = load ptr, ptr %7, align 8, !tbaa !16
  %173 = getelementptr inbounds nuw i8, ptr %172, i64 %171
  store ptr %173, ptr %7, align 8, !tbaa !16
  br label %174

174:                                              ; preds = %161, %64
  %175 = load ptr, ptr %4, align 8, !tbaa !3
  %176 = call i32 @i2o_SCT_signature(ptr noundef %175, ptr noundef %7)
  %177 = icmp sle i32 %176, 0
  br i1 %177, label %178, label %179

178:                                              ; preds = %174
  br label %189

179:                                              ; preds = %174
  br label %186

180:                                              ; preds = %59
  %181 = load ptr, ptr %7, align 8, !tbaa !16
  %182 = load ptr, ptr %4, align 8, !tbaa !3
  %183 = getelementptr inbounds nuw %struct.sct_st, ptr %182, i32 0, i32 1
  %184 = load ptr, ptr %183, align 8, !tbaa !28
  %185 = load i64, ptr %6, align 8, !tbaa !10
  call void @llvm.memcpy.p0.p0.i64(ptr align 1 %181, ptr align 1 %184, i64 %185, i1 false)
  br label %186

186:                                              ; preds = %180, %179
  %187 = load i64, ptr %6, align 8, !tbaa !10
  %188 = trunc i64 %187 to i32
  store i32 %188, ptr %3, align 4
  store i32 1, ptr %9, align 4
  br label %191

189:                                              ; preds = %178, %55, %13
  %190 = load ptr, ptr %8, align 8, !tbaa !16
  call void @CRYPTO_free(ptr noundef %190, ptr noundef @.str, i32 noundef 249)
  store i32 -1, ptr %3, align 4
  store i32 1, ptr %9, align 4
  br label %191

191:                                              ; preds = %189, %186, %36
  call void @llvm.lifetime.end.p0(i64 8, ptr %8) #5
  call void @llvm.lifetime.end.p0(i64 8, ptr %7) #5
  call void @llvm.lifetime.end.p0(i64 8, ptr %6) #5
  %192 = load i32, ptr %3, align 4
  ret i32 %192
}