; Function Attrs: nounwind uwtable
define i32 @i2o_SCT(ptr noundef %0, ptr noundef captures(address_is_null) %1) local_unnamed_addr #0 {
  %3 = alloca ptr, align 8
  call void @llvm.lifetime.start.p0(i64 8, ptr nonnull %3) #4
  store ptr null, ptr %3, align 8, !tbaa !11
  %4 = tail call i32 @SCT_is_complete(ptr noundef %0) #4
  %.not = icmp eq i32 %4, 0
  br i1 %.not, label %5, label %6

5:                                                ; preds = %2
  tail call void @ERR_new() #4
  tail call void @ERR_set_debug(ptr noundef nonnull @.str, i32 noundef 204, ptr noundef nonnull @__func__.i2o_SCT) #4
  tail call void (i32, i32, ptr, ...) @ERR_set_error(i32 noundef 50, i32 noundef 106, ptr noundef null) #4
  br label %93

6:                                                ; preds = %2
  %7 = load i32, ptr %0, align 8, !tbaa !3
  %8 = icmp eq i32 %7, 0
  br i1 %8, label %9, label %16

9:                                                ; preds = %6
  %10 = getelementptr inbounds nuw i8, ptr %0, i64 56
  %11 = load i64, ptr %10, align 8, !tbaa !19
  %12 = add i64 %11, 47
  %13 = getelementptr inbounds nuw i8, ptr %0, i64 80
  %14 = load i64, ptr %13, align 8, !tbaa !24
  %15 = add i64 %12, %14
  br label %19

16:                                               ; preds = %6
  %17 = getelementptr inbounds nuw i8, ptr %0, i64 16
  %18 = load i64, ptr %17, align 8, !tbaa !21
  br label %19

19:                                               ; preds = %16, %9
  %.035 = phi i64 [ %15, %9 ], [ %18, %16 ]
  %20 = icmp eq ptr %1, null
  br i1 %20, label %21, label %23

21:                                               ; preds = %19
  %22 = trunc i64 %.035 to i32
  br label %94

23:                                               ; preds = %19
  %24 = load ptr, ptr %1, align 8, !tbaa !11
  %.not43 = icmp eq ptr %24, null
  br i1 %.not43, label %27, label %25

25:                                               ; preds = %23
  %26 = getelementptr inbounds nuw i8, ptr %24, i64 %.035
  br label %30

27:                                               ; preds = %23
  %28 = tail call noalias ptr @CRYPTO_malloc(i64 noundef %.035, ptr noundef nonnull @.str, i32 noundef 225) #4
  store ptr %28, ptr %3, align 8, !tbaa !11
  %29 = icmp eq ptr %28, null
  br i1 %29, label %93, label %._crit_edge

._crit_edge:                                      ; preds = %27
  %.pre = load i32, ptr %0, align 8, !tbaa !3
  br label %30

30:                                               ; preds = %._crit_edge, %25
  %31 = phi ptr [ %24, %25 ], [ %28, %._crit_edge ]
  %32 = phi i32 [ %7, %25 ], [ %.pre, %._crit_edge ]
  %storemerge = phi ptr [ %26, %25 ], [ %28, %._crit_edge ]
  %.1 = phi ptr [ null, %25 ], [ %28, %._crit_edge ]
  store ptr %storemerge, ptr %1, align 8, !tbaa !11
  %33 = icmp eq i32 %32, 0
  br i1 %33, label %34, label %88

34:                                               ; preds = %30
  %35 = getelementptr inbounds nuw i8, ptr %31, i64 1
  store i8 0, ptr %31, align 1, !tbaa !12
  %36 = getelementptr inbounds nuw i8, ptr %0, i64 24
  %37 = load ptr, ptr %36, align 8, !tbaa !15
  tail call void @llvm.memcpy.p0.p0.i64(ptr noundef nonnull align 1 dereferenceable(32) %35, ptr noundef nonnull align 1 dereferenceable(32) %37, i64 32, i1 false)
  %38 = getelementptr inbounds nuw i8, ptr %31, i64 33
  %39 = getelementptr inbounds nuw i8, ptr %0, i64 40
  %40 = load i64, ptr %39, align 8, !tbaa !17
  %41 = lshr i64 %40, 56
  %42 = trunc nuw i64 %41 to i8
  %43 = getelementptr inbounds nuw i8, ptr %31, i64 34
  store i8 %42, ptr %38, align 1, !tbaa !12
  %44 = load i64, ptr %39, align 8, !tbaa !17
  %45 = lshr i64 %44, 48
  %46 = trunc i64 %45 to i8
  %47 = getelementptr inbounds nuw i8, ptr %31, i64 35
  store i8 %46, ptr %43, align 1, !tbaa !12
  %48 = load i64, ptr %39, align 8, !tbaa !17
  %49 = lshr i64 %48, 40
  %50 = trunc i64 %49 to i8
  %51 = getelementptr inbounds nuw i8, ptr %31, i64 36
  store i8 %50, ptr %47, align 1, !tbaa !12
  %52 = load i64, ptr %39, align 8, !tbaa !17
  %53 = lshr i64 %52, 32
  %54 = trunc i64 %53 to i8
  %55 = getelementptr inbounds nuw i8, ptr %31, i64 37
  store i8 %54, ptr %51, align 1, !tbaa !12
  %56 = load i64, ptr %39, align 8, !tbaa !17
  %57 = lshr i64 %56, 24
  %58 = trunc i64 %57 to i8
  %59 = getelementptr inbounds nuw i8, ptr %31, i64 38
  store i8 %58, ptr %55, align 1, !tbaa !12
  %60 = load i64, ptr %39, align 8, !tbaa !17
  %61 = lshr i64 %60, 16
  %62 = trunc i64 %61 to i8
  %63 = getelementptr inbounds nuw i8, ptr %31, i64 39
  store i8 %62, ptr %59, align 1, !tbaa !12
  %64 = load i64, ptr %39, align 8, !tbaa !17
  %65 = lshr i64 %64, 8
  %66 = trunc i64 %65 to i8
  %67 = getelementptr inbounds nuw i8, ptr %31, i64 40
  store i8 %66, ptr %63, align 1, !tbaa !12
  %68 = load i64, ptr %39, align 8, !tbaa !17
  %69 = trunc i64 %68 to i8
  %70 = getelementptr inbounds nuw i8, ptr %31, i64 41
  store i8 %69, ptr %67, align 1, !tbaa !12
  %71 = getelementptr inbounds nuw i8, ptr %0, i64 56
  %72 = load i64, ptr %71, align 8, !tbaa !19
  %73 = lshr i64 %72, 8
  %74 = trunc i64 %73 to i8
  store i8 %74, ptr %70, align 1, !tbaa !12
  %75 = load i64, ptr %71, align 8, !tbaa !19
  %76 = trunc i64 %75 to i8
  %77 = getelementptr inbounds nuw i8, ptr %31, i64 42
  store i8 %76, ptr %77, align 1, !tbaa !12
  %78 = getelementptr inbounds nuw i8, ptr %31, i64 43
  store ptr %78, ptr %3, align 8, !tbaa !11
  %79 = load i64, ptr %71, align 8, !tbaa !19
  %.not44 = icmp eq i64 %79, 0
  br i1 %.not44, label %85, label %80

80:                                               ; preds = %34
  %81 = getelementptr inbounds nuw i8, ptr %0, i64 48
  %82 = load ptr, ptr %81, align 8, !tbaa !18
  tail call void @llvm.memcpy.p0.p0.i64(ptr nonnull align 1 %78, ptr align 1 %82, i64 %79, i1 false)
  %83 = load i64, ptr %71, align 8, !tbaa !19
  %84 = getelementptr inbounds nuw i8, ptr %78, i64 %83
  store ptr %84, ptr %3, align 8, !tbaa !11
  br label %85

85:                                               ; preds = %80, %34
  %86 = call i32 @i2o_SCT_signature(ptr noundef nonnull %0, ptr noundef nonnull %3)
  %87 = icmp slt i32 %86, 1
  br i1 %87, label %93, label %91

88:                                               ; preds = %30
  %89 = getelementptr inbounds nuw i8, ptr %0, i64 8
  %90 = load ptr, ptr %89, align 8, !tbaa !20
  tail call void @llvm.memcpy.p0.p0.i64(ptr nonnull align 1 %31, ptr align 1 %90, i64 %.035, i1 false)
  br label %91

91:                                               ; preds = %85, %88
  %92 = trunc i64 %.035 to i32
  br label %94

93:                                               ; preds = %85, %27, %5
  %.0 = phi ptr [ %.1, %85 ], [ null, %27 ], [ null, %5 ]
  call void @CRYPTO_free(ptr noundef %.0, ptr noundef nonnull @.str, i32 noundef 249) #4
  br label %94

94:                                               ; preds = %93, %91, %21
  %.036 = phi i32 [ %22, %21 ], [ -1, %93 ], [ %92, %91 ]
  call void @llvm.lifetime.end.p0(i64 8, ptr nonnull %3) #4
  ret i32 %.036
}